target datalayout = "e-m:e-p270:32:32-p271:32:32-p272:64:64-i64:64-i128:128-f80:128-n8:16:32:64-S128"
target triple = "x86_64-unknown-linux-gnu"

%"class.std::__cxx11::basic_string" = type { %"struct.std::__cxx11::basic_string<char>::_Alloc_hider", i64, %union.anon.0 }
%"struct.std::__cxx11::basic_string<char>::_Alloc_hider" = type { ptr }
%union.anon.0 = type { i64, [8 x i8] }

; Function Attrs: mustprogress nounwind uwtable
define dso_local noundef i64 @_ZN9struct_pb8compiler21calculate_varint_sizeEm(i64 noundef %t) #5 {
entry:
  %t.addr = alloca i64, align 8
  %ret = alloca i64, align 8
  store i64 %t, ptr %t.addr, align 8
  store i64 0, ptr %ret, align 8
  br label %do.body

do.body:                                          ; preds = %do.cond, %entry
  %0 = load i64, ptr %ret, align 8
  %inc = add i64 %0, 1
  store i64 %inc, ptr %ret, align 8
  %1 = load i64, ptr %t.addr, align 8
  %shr = lshr i64 %1, 7
  store i64 %shr, ptr %t.addr, align 8
  br label %do.cond

do.cond:                                          ; preds = %do.body
  %2 = load i64, ptr %t.addr, align 8
  %cmp = icmp ne i64 %2, 0
  br i1 %cmp, label %do.body, label %do.end, !llvm.loop !5

do.end:                                           ; preds = %do.cond
  %3 = load i64, ptr %ret, align 8
  ret i64 %3
}

; Function Attrs: mustprogress uwtable
define dso_local void @_ZN9struct_pb8compiler18calculate_tag_sizeB5cxx11EPKN6google8protobuf15FieldDescriptorEb(ptr noalias sret(%"class.std::__cxx11::basic_string") align 8 %agg.result, ptr noundef %f, i1 noundef zeroext %ignore_repeated) #4 {
entry:
  %result.ptr = alloca ptr, align 8
  %f.addr = alloca ptr, align 8
  %ignore_repeated.addr = alloca i8, align 1
  %tag = alloca i32, align 4
  %tag_size = alloca i64, align 8
  store ptr %agg.result, ptr %result.ptr, align 8
  store ptr %f, ptr %f.addr, align 8
  %frombool = zext i1 %ignore_repeated to i8
  store i8 %frombool, ptr %ignore_repeated.addr, align 1
  %0 = load ptr, ptr %f.addr, align 8
  %1 = load i8, ptr %ignore_repeated.addr, align 1
  %tobool = trunc i8 %1 to i1
  %call = call noundef i32 @_ZN9struct_pb8compiler13calculate_tagEPKN6google8protobuf15FieldDescriptorEb(ptr noundef %0, i1 noundef zeroext %tobool)
  store i32 %call, ptr %tag, align 4
  %2 = load i32, ptr %tag, align 4
  %conv = zext i32 %2 to i64
  %call1 = call noundef i64 @_ZN9struct_pb8compiler21calculate_varint_sizeEm(i64 noundef %conv)
  store i64 %call1, ptr %tag_size, align 8
  %3 = load i64, ptr %tag_size, align 8
  call void @_ZNSt7__cxx119to_stringEm(ptr sret(%"class.std::__cxx11::basic_string") align 8 %agg.result, i64 noundef %3)
  ret void
}