; Function Attrs: mustprogress uwtable
define dso_local void @_ZN9struct_pb8compiler18calculate_tag_sizeB5cxx11EPKN6google8protobuf15FieldDescriptorEb(ptr noalias sret(%"class.std::__cxx11::basic_string") align 8 %agg.result, ptr noundef %f, i1 noundef zeroext %ignore_repeated) local_unnamed_addr #3 {
entry:
  %call = tail call noundef i32 @_ZN9struct_pb8compiler13calculate_tagEPKN6google8protobuf15FieldDescriptorEb(ptr noundef %f, i1 noundef zeroext %ignore_repeated)
  %conv = zext i32 %call to i64
  br label %do.body.i

do.body.i:                                        ; preds = %do.body.i, %entry
  %t.addr.0.i = phi i64 [ %conv, %entry ], [ %shr.i, %do.body.i ]
  %ret.0.i = phi i64 [ 0, %entry ], [ %inc.i, %do.body.i ]
  %inc.i = add nuw nsw i64 %ret.0.i, 1
  %shr.i = lshr i64 %t.addr.0.i, 7
  %cmp.not.i = icmp ult i64 %t.addr.0.i, 128
  br i1 %cmp.not.i, label %_ZN9struct_pb8compiler21calculate_varint_sizeEm.exit, label %do.body.i, !llvm.loop !8

_ZN9struct_pb8compiler21calculate_varint_sizeEm.exit: ; preds = %do.body.i
  tail call void @_ZNSt7__cxx119to_stringEm(ptr sret(%"class.std::__cxx11::basic_string") align 8 %agg.result, i64 noundef %inc.i)
  ret void
}